target datalayout = "e-m:e-p270:32:32-p271:32:32-p272:64:64-i64:64-i128:128-f80:128-n8:16:32:64-S128"
target triple = "x86_64-unknown-linux-gnu"

; Function Attrs: nounwind sspstrong uwtable
define dso_local i32 @e1000x_rxbufsize(i32 noundef %rctl) #0 {
entry:
  %retval = alloca i32, align 4
  %rctl.addr = alloca i32, align 4
  store i32 %rctl, ptr %rctl.addr, align 4
  %0 = load i32, ptr %rctl.addr, align 4
  %and = and i32 %0, 33751040
  store i32 %and, ptr %rctl.addr, align 4
  %1 = load i32, ptr %rctl.addr, align 4
  switch i32 %1, label %sw.epilog [
    i32 33619968, label %sw.bb
    i32 33685504, label %sw.bb1
    i32 33751040, label %sw.bb2
    i32 65536, label %sw.bb3
    i32 131072, label %sw.bb4
    i32 196608, label %sw.bb5
  ]

sw.bb:                                            ; preds = %entry
  store i32 16384, ptr %retval, align 4
  br label %return

sw.bb1:                                           ; preds = %entry
  store i32 8192, ptr %retval, align 4
  br label %return

sw.bb2:                                           ; preds = %entry
  store i32 4096, ptr %retval, align 4
  br label %return

sw.bb3:                                           ; preds = %entry
  store i32 1024, ptr %retval, align 4
  br label %return

sw.bb4:                                           ; preds = %entry
  store i32 512, ptr %retval, align 4
  br label %return

sw.bb5:                                           ; preds = %entry
  store i32 256, ptr %retval, align 4
  br label %return

sw.epilog:                                        ; preds = %entry
  store i32 2048, ptr %retval, align 4
  br label %return

return:                                           ; preds = %sw.epilog, %sw.bb5, %sw.bb4, %sw.bb3, %sw.bb2, %sw.bb1, %sw.bb
  %2 = load i32, ptr %retval, align 4
  ret i32 %2
}