; Function Attrs: mustprogress nofree norecurse nosync nounwind sspstrong willreturn memory(none) uwtable
define dso_local range(i32 256, 16385) i32 @e1000x_rxbufsize(i32 noundef %rctl) local_unnamed_addr #4 {
entry:
  %and = and i32 %rctl, 33751040
  switch i32 %and, label %sw.epilog [
    i32 33619968, label %return
    i32 33685504, label %sw.bb1
    i32 33751040, label %sw.bb2
    i32 65536, label %sw.bb3
    i32 131072, label %sw.bb4
    i32 196608, label %sw.bb5
  ]

sw.bb1:                                           ; preds = %entry
  br label %return

sw.bb2:                                           ; preds = %entry
  br label %return

sw.bb3:                                           ; preds = %entry
  br label %return

sw.bb4:                                           ; preds = %entry
  br label %return

sw.bb5:                                           ; preds = %entry
  br label %return

sw.epilog:                                        ; preds = %entry
  br label %return

return:                                           ; preds = %entry, %sw.epilog, %sw.bb5, %sw.bb4, %sw.bb3, %sw.bb2, %sw.bb1
  %retval.0 = phi i32 [ 2048, %sw.epilog ], [ 256, %sw.bb5 ], [ 512, %sw.bb4 ], [ 1024, %sw.bb3 ], [ 4096, %sw.bb2 ], [ 8192, %sw.bb1 ], [ 16384, %entry ]
  ret i32 %retval.0
}